; Function Attrs: mustprogress nofree norecurse nosync nounwind optsize willreturn memory(argmem: readwrite, inaccessiblemem: write) uwtable
define internal void @_ZN8nanobind6detail9wrap_moveIZL30nanobind_init_test_classes_extRNS_7module_EE3CatEEvPvS5_(ptr noundef initializes((0, 8)) %0, ptr noundef %1) #21 personality ptr @__gxx_personality_v0 {
  store ptr getelementptr inbounds nuw inrange(-16, 40) (i8, ptr @_ZTVZL30nanobind_init_test_classes_extRN8nanobind7module_EE3Cat, i64 16), ptr %0, align 8, !tbaa !24
  %3 = getelementptr inbounds nuw i8, ptr %0, i64 8
  %4 = getelementptr inbounds nuw i8, ptr %1, i64 8
  %5 = getelementptr inbounds nuw i8, ptr %0, i64 24
  store ptr %5, ptr %3, align 8, !tbaa !277
  %6 = load ptr, ptr %4, align 8, !tbaa !291
  %7 = getelementptr inbounds nuw i8, ptr %1, i64 24
  %8 = icmp eq ptr %6, %7
  br i1 %8, label %9, label %_ZNKSt7__cxx1112basic_stringIcSt11char_traitsIcESaIcEE11_M_is_localEv.exit.i.i

9:                                                ; preds = %2
  %10 = getelementptr inbounds nuw i8, ptr %1, i64 16
  %11 = load i64, ptr %10, align 8, !tbaa !282
  %12 = icmp ult i64 %11, 16
  tail call void @llvm.assume(i1 %12)
  %13 = add nuw nsw i64 %11, 1
  tail call void @llvm.memcpy.p0.p0.i64(ptr noundef nonnull align 8 dereferenceable(1) %5, ptr noundef nonnull align 8 dereferenceable(1) %7, i64 %13, i1 false)
  br label %_ZZL30nanobind_init_test_classes_extRN8nanobind7module_EEN3CatC2EOS2_.exit

_ZNKSt7__cxx1112basic_stringIcSt11char_traitsIcESaIcEE11_M_is_localEv.exit.i.i: ; preds = %2
  store ptr %6, ptr %3, align 8, !tbaa !291
  %14 = load i64, ptr %7, align 8, !tbaa !61
  store i64 %14, ptr %5, align 8, !tbaa !61
  br label %_ZZL30nanobind_init_test_classes_extRN8nanobind7module_EEN3CatC2EOS2_.exit

_ZZL30nanobind_init_test_classes_extRN8nanobind7module_EEN3CatC2EOS2_.exit: ; preds = %9, %_ZNKSt7__cxx1112basic_stringIcSt11char_traitsIcESaIcEE11_M_is_localEv.exit.i.i
  %15 = getelementptr inbounds nuw i8, ptr %1, i64 16
  %16 = load i64, ptr %15, align 8, !tbaa !282
  %17 = getelementptr inbounds nuw i8, ptr %0, i64 16
  store i64 %16, ptr %17, align 8, !tbaa !282
  store ptr %7, ptr %4, align 8, !tbaa !291
  store i64 0, ptr %15, align 8, !tbaa !282
  store i8 0, ptr %7, align 1, !tbaa !61
  ret void
}